; Function Attrs: mustprogress nounwind uwtable
define dso_local noundef zeroext i1 @_ZN5clang18isCtorOfRefCountedEPKNS_12FunctionDeclE(ptr noundef %0) local_unnamed_addr #0 {
  %2 = alloca %"class.std::__cxx11::basic_string", align 8
  call void @_ZN5clang11safeGetNameINS_12FunctionDeclEEENSt7__cxx1112basic_stringIcSt11char_traitsIcESaIcEEEPKT_(ptr dead_on_unwind nonnull writable sret(%"class.std::__cxx11::basic_string") align 8 %2, ptr noundef %0)
  %3 = call noundef i32 @_ZNKSt7__cxx1112basic_stringIcSt11char_traitsIcESaIcEE7compareEPKc(ptr noundef nonnull align 8 dereferenceable(32) %2, ptr noundef nonnull @.str.2) #10
  %4 = icmp eq i32 %3, 0
  br i1 %4, label %_ZN5clang9isRefTypeERKNSt7__cxx1112basic_stringIcSt11char_traitsIcESaIcEEE.exit.thread, label %5

5:                                                ; preds = %1
  %6 = call noundef i32 @_ZNKSt7__cxx1112basic_stringIcSt11char_traitsIcESaIcEE7compareEPKc(ptr noundef nonnull align 8 dereferenceable(32) %2, ptr noundef nonnull @.str.3) #10
  %7 = icmp eq i32 %6, 0
  br i1 %7, label %_ZN5clang9isRefTypeERKNSt7__cxx1112basic_stringIcSt11char_traitsIcESaIcEEE.exit.thread, label %8

8:                                                ; preds = %5
  %9 = call noundef i32 @_ZNKSt7__cxx1112basic_stringIcSt11char_traitsIcESaIcEE7compareEPKc(ptr noundef nonnull align 8 dereferenceable(32) %2, ptr noundef nonnull @.str.4) #10
  %10 = icmp eq i32 %9, 0
  br i1 %10, label %_ZN5clang9isRefTypeERKNSt7__cxx1112basic_stringIcSt11char_traitsIcESaIcEEE.exit.thread, label %_ZN5clang9isRefTypeERKNSt7__cxx1112basic_stringIcSt11char_traitsIcESaIcEEE.exit

_ZN5clang9isRefTypeERKNSt7__cxx1112basic_stringIcSt11char_traitsIcESaIcEEE.exit: ; preds = %8
  %11 = call noundef i32 @_ZNKSt7__cxx1112basic_stringIcSt11char_traitsIcESaIcEE7compareEPKc(ptr noundef nonnull align 8 dereferenceable(32) %2, ptr noundef nonnull @.str.5) #10
  %12 = icmp eq i32 %11, 0
  br i1 %12, label %_ZN5clang9isRefTypeERKNSt7__cxx1112basic_stringIcSt11char_traitsIcESaIcEEE.exit.thread, label %13

13:                                               ; preds = %_ZN5clang9isRefTypeERKNSt7__cxx1112basic_stringIcSt11char_traitsIcESaIcEEE.exit
  %14 = call noundef i32 @_ZNKSt7__cxx1112basic_stringIcSt11char_traitsIcESaIcEE7compareEPKc(ptr noundef nonnull align 8 dereferenceable(32) %2, ptr noundef nonnull @.str.6) #10
  %15 = icmp eq i32 %14, 0
  br i1 %15, label %_ZN5clang9isRefTypeERKNSt7__cxx1112basic_stringIcSt11char_traitsIcESaIcEEE.exit.thread, label %16

16:                                               ; preds = %13
  %17 = call noundef i32 @_ZNKSt7__cxx1112basic_stringIcSt11char_traitsIcESaIcEE7compareEPKc(ptr noundef nonnull align 8 dereferenceable(32) %2, ptr noundef nonnull @.str.7) #10
  %18 = icmp eq i32 %17, 0
  br i1 %18, label %_ZN5clang9isRefTypeERKNSt7__cxx1112basic_stringIcSt11char_traitsIcESaIcEEE.exit.thread, label %19

19:                                               ; preds = %16
  %20 = call noundef i32 @_ZNKSt7__cxx1112basic_stringIcSt11char_traitsIcESaIcEE7compareEPKc(ptr noundef nonnull align 8 dereferenceable(32) %2, ptr noundef nonnull @.str.8) #10
  %21 = icmp eq i32 %20, 0
  br i1 %21, label %_ZN5clang9isRefTypeERKNSt7__cxx1112basic_stringIcSt11char_traitsIcESaIcEEE.exit.thread, label %22

22:                                               ; preds = %19
  %23 = call noundef i32 @_ZNKSt7__cxx1112basic_stringIcSt11char_traitsIcESaIcEE7compareEPKc(ptr noundef nonnull align 8 dereferenceable(32) %2, ptr noundef nonnull @.str.9) #10
  %24 = icmp eq i32 %23, 0
  br i1 %24, label %_ZN5clang9isRefTypeERKNSt7__cxx1112basic_stringIcSt11char_traitsIcESaIcEEE.exit.thread, label %25

25:                                               ; preds = %22
  %26 = call noundef i32 @_ZNKSt7__cxx1112basic_stringIcSt11char_traitsIcESaIcEE7compareEPKc(ptr noundef nonnull align 8 dereferenceable(32) %2, ptr noundef nonnull @.str.10) #10
  %27 = icmp eq i32 %26, 0
  br i1 %27, label %_ZN5clang9isRefTypeERKNSt7__cxx1112basic_stringIcSt11char_traitsIcESaIcEEE.exit.thread, label %28

28:                                               ; preds = %25
  %29 = call noundef i32 @_ZNKSt7__cxx1112basic_stringIcSt11char_traitsIcESaIcEE7compareEPKc(ptr noundef nonnull align 8 dereferenceable(32) %2, ptr noundef nonnull @.str.11) #10
  %30 = icmp eq i32 %29, 0
  br i1 %30, label %_ZN5clang9isRefTypeERKNSt7__cxx1112basic_stringIcSt11char_traitsIcESaIcEEE.exit.thread, label %31

31:                                               ; preds = %28
  %32 = call noundef i32 @_ZNKSt7__cxx1112basic_stringIcSt11char_traitsIcESaIcEE7compareEPKc(ptr noundef nonnull align 8 dereferenceable(32) %2, ptr noundef nonnull @.str.12) #10
  %33 = icmp eq i32 %32, 0
  br i1 %33, label %_ZN5clang9isRefTypeERKNSt7__cxx1112basic_stringIcSt11char_traitsIcESaIcEEE.exit.thread, label %34

34:                                               ; preds = %31
  %35 = call noundef i32 @_ZNKSt7__cxx1112basic_stringIcSt11char_traitsIcESaIcEE7compareEPKc(ptr noundef nonnull align 8 dereferenceable(32) %2, ptr noundef nonnull @.str.13) #10
  %36 = icmp eq i32 %35, 0
  br i1 %36, label %_ZN5clang9isRefTypeERKNSt7__cxx1112basic_stringIcSt11char_traitsIcESaIcEEE.exit.thread, label %37

37:                                               ; preds = %34
  %38 = call noundef i32 @_ZNKSt7__cxx1112basic_stringIcSt11char_traitsIcESaIcEE7compareEPKc(ptr noundef nonnull align 8 dereferenceable(32) %2, ptr noundef nonnull @.str.14) #10
  %39 = icmp eq i32 %38, 0
  br label %_ZN5clang9isRefTypeERKNSt7__cxx1112basic_stringIcSt11char_traitsIcESaIcEEE.exit.thread

_ZN5clang9isRefTypeERKNSt7__cxx1112basic_stringIcSt11char_traitsIcESaIcEEE.exit.thread: ; preds = %1, %5, %8, %37, %34, %31, %28, %25, %22, %19, %16, %13, %_ZN5clang9isRefTypeERKNSt7__cxx1112basic_stringIcSt11char_traitsIcESaIcEEE.exit
  %40 = phi i1 [ true, %34 ], [ true, %31 ], [ true, %28 ], [ true, %25 ], [ true, %22 ], [ true, %19 ], [ true, %16 ], [ true, %13 ], [ true, %_ZN5clang9isRefTypeERKNSt7__cxx1112basic_stringIcSt11char_traitsIcESaIcEEE.exit ], [ %39, %37 ], [ true, %8 ], [ true, %5 ], [ true, %1 ]
  call void @_ZNSt7__cxx1112basic_stringIcSt11char_traitsIcESaIcEED1Ev(ptr noundef nonnull align 8 dereferenceable(32) %2) #10
  ret i1 %40
}